target datalayout = "e-m:e-p270:32:32-p271:32:32-p272:64:64-i64:64-i128:128-f80:128-n8:16:32:64-S128"
target triple = "x86_64-pc-linux-gnu"

%struct.dt_lib_module_t = type { %struct.dt_action_t, ptr, ptr, ptr, ptr, ptr, ptr, ptr, ptr, ptr, ptr, ptr, ptr, ptr, ptr, ptr, ptr, ptr, ptr, ptr, ptr, ptr, ptr, ptr, ptr, ptr, ptr, ptr, ptr, ptr, ptr, [128 x i8], ptr, ptr, i32, ptr, ptr, ptr, i32 }
%struct.dt_action_t = type { i32, ptr, ptr, ptr, ptr, ptr }
%struct.dt_lib_tagging_t = type { [1024 x i8], ptr, ptr, ptr, ptr, ptr, ptr, ptr, ptr, ptr, ptr, ptr, ptr, ptr, ptr, ptr, ptr, ptr, ptr, ptr, ptr, ptr, i32, i32, i32, i32, i32, ptr, ptr, %struct.anon, i32 }
%struct.anon = type { ptr, ptr, ptr, i32, i32, i32, i32, i32 }

@.str.66 = private unnamed_addr constant [5 x i8] c", %s\00", align 1

; Function Attrs: nounwind uwtable
define internal i32 @_set_matching_tag_visibility(ptr noundef %0, ptr noundef %1, ptr noundef %2, ptr noundef %3) #0 {
  %5 = alloca ptr, align 8
  %6 = alloca ptr, align 8
  %7 = alloca ptr, align 8
  %8 = alloca ptr, align 8
  %9 = alloca ptr, align 8
  %10 = alloca i32, align 4
  %11 = alloca ptr, align 8
  %12 = alloca ptr, align 8
  %13 = alloca ptr, align 8
  %14 = alloca ptr, align 8
  store ptr %0, ptr %5, align 8, !tbaa !36
  store ptr %1, ptr %6, align 8, !tbaa !138
  store ptr %2, ptr %7, align 8, !tbaa !134
  store ptr %3, ptr %8, align 8, !tbaa !6
  call void @llvm.lifetime.start.p0(i64 8, ptr %9) #11
  %15 = load ptr, ptr %8, align 8, !tbaa !6
  %16 = getelementptr inbounds nuw %struct.dt_lib_module_t, ptr %15, i32 0, i32 30
  %17 = load ptr, ptr %16, align 8, !tbaa !11
  store ptr %17, ptr %9, align 8, !tbaa !19
  call void @llvm.lifetime.start.p0(i64 4, ptr %10) #11
  call void @llvm.lifetime.start.p0(i64 8, ptr %11) #11
  store ptr null, ptr %11, align 8, !tbaa !49
  call void @llvm.lifetime.start.p0(i64 8, ptr %12) #11
  store ptr null, ptr %12, align 8, !tbaa !49
  %18 = load ptr, ptr %5, align 8, !tbaa !36
  %19 = load ptr, ptr %7, align 8, !tbaa !134
  call void (ptr, ptr, ...) @gtk_tree_model_get(ptr noundef %18, ptr noundef %19, i32 noundef 2, ptr noundef %11, i32 noundef 3, ptr noundef %12, i32 noundef -1)
  %20 = load ptr, ptr %9, align 8, !tbaa !19
  %21 = getelementptr inbounds nuw %struct.dt_lib_tagging_t, ptr %20, i32 0, i32 0
  %22 = getelementptr inbounds [1024 x i8], ptr %21, i64 0, i64 0
  %23 = load i8, ptr %22, align 8, !tbaa !52
  %24 = icmp ne i8 %23, 0
  br i1 %24, label %26, label %25

25:                                               ; preds = %4
  store i32 1, ptr %10, align 4, !tbaa !31
  br label %51

26:                                               ; preds = %4
  %27 = load ptr, ptr %12, align 8, !tbaa !49
  %28 = icmp ne ptr %27, null
  br i1 %28, label %29, label %37

29:                                               ; preds = %26
  %30 = load ptr, ptr %12, align 8, !tbaa !49
  %31 = getelementptr inbounds i8, ptr %30, i64 0
  %32 = load i8, ptr %31, align 1, !tbaa !52
  %33 = sext i8 %32 to i32
  %34 = icmp ne i32 %33, 0
  br i1 %34, label %35, label %37

35:                                               ; preds = %29
  %36 = load ptr, ptr %12, align 8, !tbaa !49
  call void (ptr, ptr, ...) @dt_util_str_cat(ptr noundef %11, ptr noundef @.str.66, ptr noundef %36)
  br label %37

37:                                               ; preds = %35, %29, %26
  call void @llvm.lifetime.start.p0(i64 8, ptr %13) #11
  %38 = load ptr, ptr %11, align 8, !tbaa !49
  %39 = call noalias ptr @g_utf8_strdown(ptr noundef %38, i64 noundef -1)
  store ptr %39, ptr %13, align 8, !tbaa !49
  call void @llvm.lifetime.start.p0(i64 8, ptr %14) #11
  %40 = load ptr, ptr %9, align 8, !tbaa !19
  %41 = getelementptr inbounds nuw %struct.dt_lib_tagging_t, ptr %40, i32 0, i32 0
  %42 = getelementptr inbounds [1024 x i8], ptr %41, i64 0, i64 0
  %43 = call noalias ptr @g_utf8_strdown(ptr noundef %42, i64 noundef -1)
  store ptr %43, ptr %14, align 8, !tbaa !49
  %44 = load ptr, ptr %13, align 8, !tbaa !49
  %45 = load ptr, ptr %14, align 8, !tbaa !49
  %46 = call ptr @g_strrstr(ptr noundef %44, ptr noundef %45)
  %47 = icmp ne ptr %46, null
  %48 = zext i1 %47 to i32
  store i32 %48, ptr %10, align 4, !tbaa !31
  %49 = load ptr, ptr %13, align 8, !tbaa !49
  call void @g_free(ptr noundef %49)
  %50 = load ptr, ptr %14, align 8, !tbaa !49
  call void @g_free(ptr noundef %50)
  call void @llvm.lifetime.end.p0(i64 8, ptr %14) #11
  call void @llvm.lifetime.end.p0(i64 8, ptr %13) #11
  br label %51

51:                                               ; preds = %37, %25
  %52 = load ptr, ptr %9, align 8, !tbaa !19
  %53 = getelementptr inbounds nuw %struct.dt_lib_tagging_t, ptr %52, i32 0, i32 22
  %54 = load i32, ptr %53, align 8, !tbaa !38
  %55 = icmp ne i32 %54, 0
  br i1 %55, label %56, label %62

56:                                               ; preds = %51
  %57 = load ptr, ptr %5, align 8, !tbaa !36
  %58 = call i64 @gtk_tree_store_get_type() #12
  %59 = call ptr @g_type_check_instance_cast(ptr noundef %57, i64 noundef %58)
  %60 = load ptr, ptr %7, align 8, !tbaa !134
  %61 = load i32, ptr %10, align 4, !tbaa !31
  call void (ptr, ptr, ...) @gtk_tree_store_set(ptr noundef %59, ptr noundef %60, i32 noundef 7, i32 noundef %61, i32 noundef -1)
  br label %68

62:                                               ; preds = %51
  %63 = load ptr, ptr %5, align 8, !tbaa !36
  %64 = call i64 @gtk_list_store_get_type() #12
  %65 = call ptr @g_type_check_instance_cast(ptr noundef %63, i64 noundef %64)
  %66 = load ptr, ptr %7, align 8, !tbaa !134
  %67 = load i32, ptr %10, align 4, !tbaa !31
  call void (ptr, ptr, ...) @gtk_list_store_set(ptr noundef %65, ptr noundef %66, i32 noundef 7, i32 noundef %67, i32 noundef -1)
  br label %68

68:                                               ; preds = %62, %56
  %69 = load ptr, ptr %11, align 8, !tbaa !49
  call void @g_free(ptr noundef %69)
  %70 = load ptr, ptr %12, align 8, !tbaa !49
  call void @g_free(ptr noundef %70)
  call void @llvm.lifetime.end.p0(i64 8, ptr %12) #11
  call void @llvm.lifetime.end.p0(i64 8, ptr %11) #11
  call void @llvm.lifetime.end.p0(i64 4, ptr %10) #11
  call void @llvm.lifetime.end.p0(i64 8, ptr %9) #11
  ret i32 0
}