; Function Attrs: nounwind uwtable
define internal noundef i32 @_set_matching_tag_visibility(ptr noundef %0, ptr readnone captures(none) %1, ptr noundef %2, ptr noundef readonly captures(none) %3) #1 {
  %5 = alloca ptr, align 8
  %6 = alloca ptr, align 8
  %7 = getelementptr inbounds nuw i8, ptr %3, i64 280
  %8 = load ptr, ptr %7, align 8, !tbaa !6
  call void @llvm.lifetime.start.p0(i64 8, ptr nonnull %5) #16
  store ptr null, ptr %5, align 8, !tbaa !31
  call void @llvm.lifetime.start.p0(i64 8, ptr nonnull %6) #16
  store ptr null, ptr %6, align 8, !tbaa !31
  call void (ptr, ptr, ...) @gtk_tree_model_get(ptr noundef %0, ptr noundef %2, i32 noundef 2, ptr noundef nonnull %5, i32 noundef 3, ptr noundef nonnull %6, i32 noundef -1) #16
  %9 = load i8, ptr %8, align 8, !tbaa !40
  %.not = icmp eq i8 %9, 0
  br i1 %.not, label %22, label %10

10:                                               ; preds = %4
  %11 = load ptr, ptr %6, align 8, !tbaa !31
  %.not16 = icmp eq ptr %11, null
  br i1 %.not16, label %15, label %12

12:                                               ; preds = %10
  %13 = load i8, ptr %11, align 1, !tbaa !40
  %.not17 = icmp eq i8 %13, 0
  br i1 %.not17, label %15, label %14

14:                                               ; preds = %12
  call void (ptr, ptr, ...) @dt_util_str_cat(ptr noundef nonnull %5, ptr noundef nonnull @.str.66, ptr noundef nonnull %11) #16
  br label %15

15:                                               ; preds = %14, %12, %10
  %16 = load ptr, ptr %5, align 8, !tbaa !31
  %17 = call noalias ptr @g_utf8_strdown(ptr noundef %16, i64 noundef -1) #16
  %18 = call noalias ptr @g_utf8_strdown(ptr noundef nonnull %8, i64 noundef -1) #16
  %19 = call ptr @g_strrstr(ptr noundef %17, ptr noundef %18) #16
  %20 = icmp ne ptr %19, null
  %21 = zext i1 %20 to i32
  call void @g_free(ptr noundef %17) #16
  call void @g_free(ptr noundef %18) #16
  br label %22

22:                                               ; preds = %4, %15
  %.0 = phi i32 [ %21, %15 ], [ 1, %4 ]
  %23 = getelementptr inbounds nuw i8, ptr %8, i64 1192
  %24 = load i32, ptr %23, align 8, !tbaa !36
  %.not18 = icmp eq i32 %24, 0
  br i1 %.not18, label %28, label %25

25:                                               ; preds = %22
  %26 = tail call i64 @gtk_tree_store_get_type() #17
  %27 = call ptr @g_type_check_instance_cast(ptr noundef %0, i64 noundef %26) #16
  call void (ptr, ptr, ...) @gtk_tree_store_set(ptr noundef %27, ptr noundef %2, i32 noundef 7, i32 noundef %.0, i32 noundef -1) #16
  br label %31

28:                                               ; preds = %22
  %29 = tail call i64 @gtk_list_store_get_type() #17
  %30 = call ptr @g_type_check_instance_cast(ptr noundef %0, i64 noundef %29) #16
  call void (ptr, ptr, ...) @gtk_list_store_set(ptr noundef %30, ptr noundef %2, i32 noundef 7, i32 noundef %.0, i32 noundef -1) #16
  br label %31

31:                                               ; preds = %28, %25
  %32 = load ptr, ptr %5, align 8, !tbaa !31
  call void @g_free(ptr noundef %32) #16
  %33 = load ptr, ptr %6, align 8, !tbaa !31
  call void @g_free(ptr noundef %33) #16
  call void @llvm.lifetime.end.p0(i64 8, ptr nonnull %6) #16
  call void @llvm.lifetime.end.p0(i64 8, ptr nonnull %5) #16
  ret i32 0
}